target datalayout = "e-m:e-p270:32:32-p271:32:32-p272:64:64-i64:64-i128:128-f80:128-n8:16:32:64-S128"
target triple = "x86_64-pc-linux-gnu"

%struct._packet_info = type { ptr, ptr, i32, i32, %struct.nstime_t, %struct.nstime_t, %struct.nstime_t, i8, ptr, ptr, ptr, ptr, %struct._address, %struct._address, %struct._address, %struct._address, %struct._address, %struct._address, i32, ptr, i8, [3 x i8], %struct.anon, i32, i32, i32, i32, ptr, i8, ptr, ptr, i16, i16, i32, i32, i16, i32, i32, ptr, ptr, ptr, i8, i8, i16, i16, i16, i32, i16, i16, ptr, ptr, ptr, ptr, ptr, i32, i32 }
%struct.nstime_t = type { i64, i32 }
%struct._address = type { i32, i32, ptr, ptr }
%struct.anon = type { i8, [3 x i8] }

@hf_zbee_beacon_protocol = internal global i32 0, align 4
@hf_zbee_beacon_epid = internal global i32 0, align 4
@hf_zbee_beacon_tx_offset = internal global i32 0, align 4
@hf_zbee_beacon_update_id = internal global i32 0, align 4
@ett_zbee_nwk_beacon = internal global i32 0, align 4
@ett_zbee_nwk_beacon_bitfield = internal global i32 0, align 4
@.str.227 = private unnamed_addr constant [7 x i8] c"ZigBee\00", align 1
@proto_zbee_beacon = internal global i32 0, align 4
@.str.357 = private unnamed_addr constant [5 x i8] c", %s\00", align 1
@dissect_zbee_beacon.beacon_fields = internal constant [6 x ptr] [ptr @hf_zbee_beacon_stack_profile, ptr @hf_zbee_beacon_version, ptr @hf_zbee_beacon_router_capacity, ptr @hf_zbee_beacon_depth, ptr @hf_zbee_beacon_end_device_capacity, ptr null], align 16
@.str.367 = private unnamed_addr constant [9 x i8] c"Beacon: \00", align 1
@.str.368 = private unnamed_addr constant [16 x i8] c"Unknown Profile\00", align 1
@.str.369 = private unnamed_addr constant [11 x i8] c", EPID: %s\00", align 1

; Function Attrs: null_pointer_is_valid sspstrong uwtable
define internal i32 @dissect_zbee_beacon(ptr noundef %0, ptr noundef %1, ptr noundef %2, ptr noundef %3) #1 {
  %5 = alloca ptr, align 8
  %6 = alloca ptr, align 8
  %7 = alloca ptr, align 8
  %8 = alloca ptr, align 8
  %9 = alloca ptr, align 8
  %10 = alloca ptr, align 8
  %11 = alloca i32, align 4
  %12 = alloca i8, align 1
  %13 = alloca i32, align 4
  store ptr %0, ptr %5, align 8
  store ptr %1, ptr %6, align 8
  store ptr %2, ptr %7, align 8
  store ptr %3, ptr %8, align 8
  call void @llvm.lifetime.start.p0(i64 8, ptr %9) #10
  call void @llvm.lifetime.start.p0(i64 8, ptr %10) #10
  call void @llvm.lifetime.start.p0(i64 4, ptr %11) #10
  store i32 0, ptr %11, align 4
  call void @llvm.lifetime.start.p0(i64 1, ptr %12) #10
  call void @llvm.lifetime.start.p0(i64 4, ptr %13) #10
  %14 = load ptr, ptr %6, align 8
  %15 = getelementptr inbounds nuw %struct._packet_info, ptr %14, i32 0, i32 1
  %16 = load ptr, ptr %15, align 8
  call void @col_set_str(ptr noundef %16, i32 noundef 35, ptr noundef @.str.227)
  %17 = load ptr, ptr %7, align 8
  %18 = load i32, ptr @proto_zbee_beacon, align 4
  %19 = load ptr, ptr %5, align 8
  %20 = call ptr @proto_tree_add_item(ptr noundef %17, i32 noundef %18, ptr noundef %19, i32 noundef 0, i32 noundef -1, i32 noundef 0)
  store ptr %20, ptr %9, align 8
  %21 = load ptr, ptr %9, align 8
  %22 = load i32, ptr @ett_zbee_nwk_beacon, align 4
  %23 = call ptr @proto_item_add_subtree(ptr noundef %21, i32 noundef %22)
  store ptr %23, ptr %10, align 8
  %24 = load ptr, ptr %10, align 8
  %25 = load i32, ptr @hf_zbee_beacon_protocol, align 4
  %26 = load ptr, ptr %5, align 8
  %27 = load i32, ptr %11, align 4
  %28 = call ptr @proto_tree_add_item(ptr noundef %24, i32 noundef %25, ptr noundef %26, i32 noundef %27, i32 noundef 1, i32 noundef 0)
  %29 = load i32, ptr %11, align 4
  %30 = add i32 %29, 1
  store i32 %30, ptr %11, align 4
  %31 = load ptr, ptr %10, align 8
  %32 = load ptr, ptr %5, align 8
  %33 = load i32, ptr %11, align 4
  %34 = load i32, ptr @ett_zbee_nwk_beacon_bitfield, align 4
  %35 = call ptr @proto_tree_add_bitmask_text(ptr noundef %31, ptr noundef %32, i32 noundef %33, i32 noundef 2, ptr noundef @.str.367, ptr noundef null, i32 noundef %34, ptr noundef @dissect_zbee_beacon.beacon_fields, i32 noundef -2147483648, i32 noundef 10)
  %36 = load ptr, ptr %5, align 8
  %37 = load i32, ptr %11, align 4
  %38 = call zeroext i16 @tvb_get_uint16(ptr noundef %36, i32 noundef %37, i32 noundef -2147483648)
  %39 = zext i16 %38 to i32
  %40 = and i32 %39, 240
  %41 = ashr i32 %40, 4
  %42 = trunc i32 %41 to i8
  store i8 %42, ptr %12, align 1
  %43 = load ptr, ptr %5, align 8
  %44 = load i32, ptr %11, align 4
  %45 = call zeroext i16 @tvb_get_uint16(ptr noundef %43, i32 noundef %44, i32 noundef -2147483648)
  %46 = zext i16 %45 to i32
  %47 = and i32 %46, 15
  store i32 %47, ptr %13, align 4
  %48 = load ptr, ptr %9, align 8
  %49 = load i32, ptr %13, align 4
  %50 = call ptr @val_to_str_const(i32 noundef %49, ptr noundef @zbee_nwk_stack_profiles, ptr noundef @.str.368)
  call void (ptr, ptr, ...) @proto_item_append_text(ptr noundef %48, ptr noundef @.str.357, ptr noundef %50)
  %51 = load i32, ptr %11, align 4
  %52 = add i32 %51, 2
  store i32 %52, ptr %11, align 4
  %53 = load i8, ptr %12, align 1
  %54 = zext i8 %53 to i32
  %55 = icmp sge i32 %54, 2
  br i1 %55, label %56, label %107

56:                                               ; preds = %4
  %57 = load ptr, ptr %10, align 8
  %58 = load i32, ptr @hf_zbee_beacon_epid, align 4
  %59 = load ptr, ptr %5, align 8
  %60 = load i32, ptr %11, align 4
  %61 = call ptr @proto_tree_add_item(ptr noundef %57, i32 noundef %58, ptr noundef %59, i32 noundef %60, i32 noundef 8, i32 noundef -2147483648)
  %62 = load ptr, ptr %6, align 8
  %63 = getelementptr inbounds nuw %struct._packet_info, ptr %62, i32 0, i32 1
  %64 = load ptr, ptr %63, align 8
  %65 = load ptr, ptr %6, align 8
  %66 = getelementptr inbounds nuw %struct._packet_info, ptr %65, i32 0, i32 51
  %67 = load ptr, ptr %66, align 8
  %68 = load ptr, ptr %5, align 8
  %69 = load i32, ptr %11, align 4
  %70 = call i64 @tvb_get_uint64(ptr noundef %68, i32 noundef %69, i32 noundef -2147483648)
  %71 = call ptr @eui64_to_display(ptr noundef %67, i64 noundef %70)
  call void (ptr, i32, ptr, ...) @col_append_fstr(ptr noundef %64, i32 noundef 25, ptr noundef @.str.369, ptr noundef %71)
  %72 = load ptr, ptr %9, align 8
  %73 = load ptr, ptr %6, align 8
  %74 = getelementptr inbounds nuw %struct._packet_info, ptr %73, i32 0, i32 51
  %75 = load ptr, ptr %74, align 8
  %76 = load ptr, ptr %5, align 8
  %77 = load i32, ptr %11, align 4
  %78 = call i64 @tvb_get_uint64(ptr noundef %76, i32 noundef %77, i32 noundef -2147483648)
  %79 = call ptr @eui64_to_display(ptr noundef %75, i64 noundef %78)
  call void (ptr, ptr, ...) @proto_item_append_text(ptr noundef %72, ptr noundef @.str.369, ptr noundef %79)
  %80 = load i32, ptr %11, align 4
  %81 = add i32 %80, 8
  store i32 %81, ptr %11, align 4
  %82 = load ptr, ptr %5, align 8
  %83 = load i32, ptr %11, align 4
  %84 = call zeroext i1 @tvb_bytes_exist(ptr noundef %82, i32 noundef %83, i32 noundef 3)
  br i1 %84, label %85, label %106

85:                                               ; preds = %56
  %86 = load ptr, ptr %10, align 8
  %87 = load i32, ptr @hf_zbee_beacon_tx_offset, align 4
  %88 = load ptr, ptr %5, align 8
  %89 = load i32, ptr %11, align 4
  %90 = call ptr @proto_tree_add_item(ptr noundef %86, i32 noundef %87, ptr noundef %88, i32 noundef %89, i32 noundef 3, i32 noundef -2147483648)
  %91 = load i32, ptr %11, align 4
  %92 = add i32 %91, 3
  store i32 %92, ptr %11, align 4
  %93 = load ptr, ptr %5, align 8
  %94 = load i32, ptr %11, align 4
  %95 = call i32 @tvb_captured_length_remaining(ptr noundef %93, i32 noundef %94)
  %96 = icmp ne i32 %95, 0
  br i1 %96, label %97, label %105

97:                                               ; preds = %85
  %98 = load ptr, ptr %10, align 8
  %99 = load i32, ptr @hf_zbee_beacon_update_id, align 4
  %100 = load ptr, ptr %5, align 8
  %101 = load i32, ptr %11, align 4
  %102 = call ptr @proto_tree_add_item(ptr noundef %98, i32 noundef %99, ptr noundef %100, i32 noundef %101, i32 noundef 1, i32 noundef 0)
  %103 = load i32, ptr %11, align 4
  %104 = add i32 %103, 1
  store i32 %104, ptr %11, align 4
  br label %105

105:                                              ; preds = %97, %85
  br label %106

106:                                              ; preds = %105, %56
  br label %120

107:                                              ; preds = %4
  %108 = load ptr, ptr %5, align 8
  %109 = load i32, ptr %11, align 4
  %110 = call zeroext i1 @tvb_bytes_exist(ptr noundef %108, i32 noundef %109, i32 noundef 3)
  br i1 %110, label %111, label %119

111:                                              ; preds = %107
  %112 = load ptr, ptr %10, align 8
  %113 = load i32, ptr @hf_zbee_beacon_tx_offset, align 4
  %114 = load ptr, ptr %5, align 8
  %115 = load i32, ptr %11, align 4
  %116 = call ptr @proto_tree_add_item(ptr noundef %112, i32 noundef %113, ptr noundef %114, i32 noundef %115, i32 noundef 3, i32 noundef -2147483648)
  %117 = load i32, ptr %11, align 4
  %118 = add i32 %117, 3
  store i32 %118, ptr %11, align 4
  br label %119

119:                                              ; preds = %111, %107
  br label %120

120:                                              ; preds = %119, %106
  %121 = load ptr, ptr %5, align 8
  %122 = load ptr, ptr %6, align 8
  %123 = load ptr, ptr %10, align 8
  %124 = load i32, ptr %11, align 4
  %125 = load ptr, ptr %8, align 8
  %126 = call i32 @dissect_zbee_tlvs(ptr noundef %121, ptr noundef %122, ptr noundef %123, i32 noundef %124, ptr noundef %125, i8 noundef zeroext 0, i32 noundef 0)
  store i32 %126, ptr %11, align 4
  %127 = load i32, ptr %11, align 4
  call void @llvm.lifetime.end.p0(i64 4, ptr %13) #10
  call void @llvm.lifetime.end.p0(i64 1, ptr %12) #10
  call void @llvm.lifetime.end.p0(i64 4, ptr %11) #10
  call void @llvm.lifetime.end.p0(i64 8, ptr %10) #10
  call void @llvm.lifetime.end.p0(i64 8, ptr %9) #10
  ret i32 %127
}