; Function Attrs: null_pointer_is_valid sspstrong uwtable
define internal i32 @dissect_zbee_beacon(ptr noundef %0, ptr noundef %1, ptr noundef %2, ptr noundef %3) #1 {
  %5 = getelementptr inbounds nuw i8, ptr %1, i64 8
  %6 = load ptr, ptr %5, align 8
  tail call void @col_set_str(ptr noundef %6, i32 noundef 35, ptr noundef nonnull @.str.227)
  %7 = load i32, ptr @proto_zbee_beacon, align 4
  %8 = tail call ptr @proto_tree_add_item(ptr noundef %2, i32 noundef %7, ptr noundef %0, i32 noundef 0, i32 noundef -1, i32 noundef 0)
  %9 = load i32, ptr @ett_zbee_nwk_beacon, align 4
  %10 = tail call ptr @proto_item_add_subtree(ptr noundef %8, i32 noundef %9)
  %11 = load i32, ptr @hf_zbee_beacon_protocol, align 4
  %12 = tail call ptr @proto_tree_add_item(ptr noundef %10, i32 noundef %11, ptr noundef %0, i32 noundef 0, i32 noundef 1, i32 noundef 0)
  %13 = load i32, ptr @ett_zbee_nwk_beacon_bitfield, align 4
  %14 = tail call ptr @proto_tree_add_bitmask_text(ptr noundef %10, ptr noundef %0, i32 noundef 1, i32 noundef 2, ptr noundef nonnull @.str.367, ptr noundef null, i32 noundef %13, ptr noundef nonnull @dissect_zbee_beacon.beacon_fields, i32 noundef -2147483648, i32 noundef 10)
  %15 = tail call zeroext i16 @tvb_get_uint16(ptr noundef %0, i32 noundef 1, i32 noundef -2147483648)
  %16 = tail call zeroext i16 @tvb_get_uint16(ptr noundef %0, i32 noundef 1, i32 noundef -2147483648)
  %17 = and i16 %16, 15
  %18 = zext nneg i16 %17 to i32
  %19 = tail call ptr @val_to_str_const(i32 noundef %18, ptr noundef nonnull @zbee_nwk_stack_profiles, ptr noundef nonnull @.str.368)
  tail call void (ptr, ptr, ...) @proto_item_append_text(ptr noundef %8, ptr noundef nonnull @.str.357, ptr noundef %19)
  %20 = and i16 %15, 224
  %.not = icmp eq i16 %20, 0
  br i1 %.not, label %40, label %21

21:                                               ; preds = %4
  %22 = load i32, ptr @hf_zbee_beacon_epid, align 4
  %23 = tail call ptr @proto_tree_add_item(ptr noundef %10, i32 noundef %22, ptr noundef %0, i32 noundef 3, i32 noundef 8, i32 noundef -2147483648)
  %24 = load ptr, ptr %5, align 8
  %25 = getelementptr inbounds nuw i8, ptr %1, i64 408
  %26 = load ptr, ptr %25, align 8
  %27 = tail call i64 @tvb_get_uint64(ptr noundef %0, i32 noundef 3, i32 noundef -2147483648)
  %28 = tail call ptr @eui64_to_display(ptr noundef %26, i64 noundef %27)
  tail call void (ptr, i32, ptr, ...) @col_append_fstr(ptr noundef %24, i32 noundef 25, ptr noundef nonnull @.str.369, ptr noundef %28)
  %29 = load ptr, ptr %25, align 8
  %30 = tail call i64 @tvb_get_uint64(ptr noundef %0, i32 noundef 3, i32 noundef -2147483648)
  %31 = tail call ptr @eui64_to_display(ptr noundef %29, i64 noundef %30)
  tail call void (ptr, ptr, ...) @proto_item_append_text(ptr noundef %8, ptr noundef nonnull @.str.369, ptr noundef %31)
  %32 = tail call zeroext i1 @tvb_bytes_exist(ptr noundef %0, i32 noundef 11, i32 noundef 3)
  br i1 %32, label %33, label %45

33:                                               ; preds = %21
  %34 = load i32, ptr @hf_zbee_beacon_tx_offset, align 4
  %35 = tail call ptr @proto_tree_add_item(ptr noundef %10, i32 noundef %34, ptr noundef %0, i32 noundef 11, i32 noundef 3, i32 noundef -2147483648)
  %36 = tail call i32 @tvb_captured_length_remaining(ptr noundef %0, i32 noundef 14)
  %.not54 = icmp eq i32 %36, 0
  br i1 %.not54, label %45, label %37

37:                                               ; preds = %33
  %38 = load i32, ptr @hf_zbee_beacon_update_id, align 4
  %39 = tail call ptr @proto_tree_add_item(ptr noundef %10, i32 noundef %38, ptr noundef %0, i32 noundef 14, i32 noundef 1, i32 noundef 0)
  br label %45

40:                                               ; preds = %4
  %41 = tail call zeroext i1 @tvb_bytes_exist(ptr noundef %0, i32 noundef 3, i32 noundef 3)
  br i1 %41, label %42, label %45

42:                                               ; preds = %40
  %43 = load i32, ptr @hf_zbee_beacon_tx_offset, align 4
  %44 = tail call ptr @proto_tree_add_item(ptr noundef %10, i32 noundef %43, ptr noundef %0, i32 noundef 3, i32 noundef 3, i32 noundef -2147483648)
  br label %45

45:                                               ; preds = %40, %42, %21, %37, %33
  %.0 = phi i32 [ 15, %37 ], [ 14, %33 ], [ 11, %21 ], [ 6, %42 ], [ 3, %40 ]
  %46 = tail call i32 @dissect_zbee_tlvs(ptr noundef %0, ptr noundef %1, ptr noundef %10, i32 noundef %.0, ptr noundef %3, i8 noundef zeroext 0, i32 noundef 0)
  ret i32 %46
}